target datalayout = "e-m:e-p270:32:32-p271:32:32-p272:64:64-i64:64-i128:128-f80:128-n8:16:32:64-S128"
target triple = "x86_64-pc-linux-gnu"

%struct.H5O_shared_t = type { i32, ptr, i32, %union.anon }
%union.anon = type { %struct.H5O_mesg_loc_t }
%struct.H5O_mesg_loc_t = type { i32, i64 }
%struct.H5O_msg_class_t = type { i32, ptr, i64, i32, ptr, ptr, ptr, ptr, ptr, ptr, ptr, ptr, ptr, ptr, ptr, ptr, ptr, ptr, ptr, ptr }
%struct.H5O_loc_t = type { ptr, i64, i8 }

@.str = private unnamed_addr constant [103 x i8] c"generated/home/dtcxzyw/WorkSpace/Projects/compilers/llvm-opt-benchmark/bench/hdf5/hdf5/src/H5Oshared.c\00", align 1
@H5E_OHDR_g = external global i64, align 8
@__func__.H5O__shared_post_copy_file = private unnamed_addr constant [27 x i8] c"H5O__shared_post_copy_file\00", align 1
@H5E_CANTCOPY_g = external global i64, align 8
@.str.6 = private unnamed_addr constant [22 x i8] c"unable to copy object\00", align 1
@H5E_BADMESG_g = external global i64, align 8
@.str.7 = private unnamed_addr constant [20 x i8] c"can't share message\00", align 1

; Function Attrs: nounwind uwtable
define i32 @H5O__shared_post_copy_file(ptr noundef %0, ptr noundef %1, ptr noundef %2, ptr noundef %3, ptr noundef %4, ptr noundef %5) #0 {
  %7 = alloca ptr, align 8
  %8 = alloca ptr, align 8
  %9 = alloca ptr, align 8
  %10 = alloca ptr, align 8
  %11 = alloca ptr, align 8
  %12 = alloca ptr, align 8
  %13 = alloca i32, align 4
  %14 = alloca i8, align 1
  %15 = alloca %struct.H5O_loc_t, align 8
  %16 = alloca %struct.H5O_loc_t, align 8
  store ptr %0, ptr %7, align 8
  store ptr %1, ptr %8, align 8
  store ptr %2, ptr %9, align 8
  store ptr %3, ptr %10, align 8
  store ptr %4, ptr %11, align 8
  store ptr %5, ptr %12, align 8
  store i32 0, ptr %13, align 4
  store i8 0, ptr %14, align 1
  %17 = load ptr, ptr %9, align 8
  %18 = getelementptr inbounds %struct.H5O_shared_t, ptr %17, i32 0, i32 0
  %19 = load i32, ptr %18, align 8
  %20 = icmp eq i32 %19, 2
  br i1 %20, label %21, label %71

21:                                               ; preds = %6
  %22 = call i32 @H5O_loc_reset(ptr noundef %15)
  %23 = load ptr, ptr %7, align 8
  %24 = getelementptr inbounds %struct.H5O_loc_t, ptr %15, i32 0, i32 0
  store ptr %23, ptr %24, align 8
  %25 = load ptr, ptr %9, align 8
  %26 = getelementptr inbounds %struct.H5O_shared_t, ptr %25, i32 0, i32 1
  %27 = load ptr, ptr %26, align 8
  %28 = getelementptr inbounds %struct.H5O_loc_t, ptr %16, i32 0, i32 0
  store ptr %27, ptr %28, align 8
  %29 = load ptr, ptr %9, align 8
  %30 = getelementptr inbounds %struct.H5O_shared_t, ptr %29, i32 0, i32 3
  %31 = getelementptr inbounds %struct.H5O_mesg_loc_t, ptr %30, i32 0, i32 1
  %32 = load i64, ptr %31, align 8
  %33 = getelementptr inbounds %struct.H5O_loc_t, ptr %16, i32 0, i32 1
  store i64 %32, ptr %33, align 8
  %34 = load ptr, ptr %12, align 8
  %35 = call i32 @H5O_copy_header_map(ptr noundef %16, ptr noundef %15, ptr noundef %34, i1 noundef zeroext false, ptr noundef null, ptr noundef null)
  %36 = icmp slt i32 %35, 0
  br i1 %36, label %37, label %52

37:                                               ; preds = %21
  br label %38

38:                                               ; preds = %37
  br label %39

39:                                               ; preds = %38
  br label %40

40:                                               ; preds = %39
  %41 = load i64, ptr @H5E_OHDR_g, align 8
  %42 = load i64, ptr @H5E_CANTCOPY_g, align 8
  %43 = call i32 (ptr, ptr, i32, i64, i64, ptr, ...) @H5E_printf_stack(ptr noundef @.str, ptr noundef @__func__.H5O__shared_post_copy_file, i32 noundef 648, i64 noundef %41, i64 noundef %42, ptr noundef @.str.6)
  br label %44

44:                                               ; preds = %40
  store i8 1, ptr %14, align 1
  %45 = load i8, ptr %14, align 1
  %46 = trunc i8 %45 to i1
  %47 = zext i1 %46 to i8
  store i8 %47, ptr %14, align 1
  br label %48

48:                                               ; preds = %44
  br label %49

49:                                               ; preds = %48
  store i32 -1, ptr %13, align 4
  br label %97

50:                                               ; No predecessors!
  br label %51

51:                                               ; preds = %50
  br label %52

52:                                               ; preds = %51, %21
  %53 = load ptr, ptr %10, align 8
  %54 = getelementptr inbounds %struct.H5O_shared_t, ptr %53, i32 0, i32 0
  store i32 2, ptr %54, align 8
  %55 = load ptr, ptr %7, align 8
  %56 = load ptr, ptr %10, align 8
  %57 = getelementptr inbounds %struct.H5O_shared_t, ptr %56, i32 0, i32 1
  store ptr %55, ptr %57, align 8
  %58 = load ptr, ptr %8, align 8
  %59 = getelementptr inbounds %struct.H5O_msg_class_t, ptr %58, i32 0, i32 0
  %60 = load i32, ptr %59, align 8
  %61 = load ptr, ptr %10, align 8
  %62 = getelementptr inbounds %struct.H5O_shared_t, ptr %61, i32 0, i32 2
  store i32 %60, ptr %62, align 8
  %63 = load ptr, ptr %10, align 8
  %64 = getelementptr inbounds %struct.H5O_shared_t, ptr %63, i32 0, i32 3
  %65 = getelementptr inbounds %struct.H5O_mesg_loc_t, ptr %64, i32 0, i32 0
  store i32 0, ptr %65, align 8
  %66 = getelementptr inbounds %struct.H5O_loc_t, ptr %15, i32 0, i32 1
  %67 = load i64, ptr %66, align 8
  %68 = load ptr, ptr %10, align 8
  %69 = getelementptr inbounds %struct.H5O_shared_t, ptr %68, i32 0, i32 3
  %70 = getelementptr inbounds %struct.H5O_mesg_loc_t, ptr %69, i32 0, i32 1
  store i64 %67, ptr %70, align 8
  br label %96

71:                                               ; preds = %6
  %72 = load ptr, ptr %7, align 8
  %73 = load ptr, ptr %8, align 8
  %74 = getelementptr inbounds %struct.H5O_msg_class_t, ptr %73, i32 0, i32 0
  %75 = load i32, ptr %74, align 8
  %76 = load ptr, ptr %10, align 8
  %77 = load ptr, ptr %11, align 8
  %78 = call i32 @H5SM_try_share(ptr noundef %72, ptr noundef null, i32 noundef 2, i32 noundef %75, ptr noundef %76, ptr noundef %77)
  %79 = icmp slt i32 %78, 0
  br i1 %79, label %80, label %95

80:                                               ; preds = %71
  br label %81

81:                                               ; preds = %80
  br label %82

82:                                               ; preds = %81
  br label %83

83:                                               ; preds = %82
  %84 = load i64, ptr @H5E_OHDR_g, align 8
  %85 = load i64, ptr @H5E_BADMESG_g, align 8
  %86 = call i32 (ptr, ptr, i32, i64, i64, ptr, ...) @H5E_printf_stack(ptr noundef @.str, ptr noundef @__func__.H5O__shared_post_copy_file, i32 noundef 656, i64 noundef %84, i64 noundef %85, ptr noundef @.str.7)
  br label %87

87:                                               ; preds = %83
  store i8 1, ptr %14, align 1
  %88 = load i8, ptr %14, align 1
  %89 = trunc i8 %88 to i1
  %90 = zext i1 %89 to i8
  store i8 %90, ptr %14, align 1
  br label %91

91:                                               ; preds = %87
  br label %92

92:                                               ; preds = %91
  store i32 -1, ptr %13, align 4
  br label %97

93:                                               ; No predecessors!
  br label %94

94:                                               ; preds = %93
  br label %95

95:                                               ; preds = %94, %71
  br label %96

96:                                               ; preds = %95, %52
  br label %97

97:                                               ; preds = %96, %92, %49
  %98 = load i32, ptr %13, align 4
  ret i32 %98
}