; Function Attrs: nounwind uwtable
define range(i32 -1, 1) i32 @H5O__shared_post_copy_file(ptr noundef %0, ptr nocapture noundef readonly %1, ptr nocapture noundef readonly %2, ptr noundef %3, ptr noundef %4, ptr noundef %5) local_unnamed_addr #0 {
  %7 = alloca %struct.H5O_loc_t, align 8
  %8 = alloca %struct.H5O_loc_t, align 8
  %9 = load i32, ptr %2, align 8
  %10 = icmp eq i32 %9, 2
  br i1 %10, label %11, label %32

11:                                               ; preds = %6
  %12 = call i32 @H5O_loc_reset(ptr noundef nonnull %7) #7
  store ptr %0, ptr %7, align 8
  %13 = getelementptr inbounds i8, ptr %2, i64 8
  %14 = load ptr, ptr %13, align 8
  store ptr %14, ptr %8, align 8
  %15 = getelementptr inbounds i8, ptr %2, i64 32
  %16 = load i64, ptr %15, align 8
  %17 = getelementptr inbounds i8, ptr %8, i64 8
  store i64 %16, ptr %17, align 8
  %18 = call i32 @H5O_copy_header_map(ptr noundef nonnull %8, ptr noundef nonnull %7, ptr noundef %5, i1 noundef zeroext false, ptr noundef null, ptr noundef null) #7
  %19 = icmp slt i32 %18, 0
  br i1 %19, label %20, label %24

20:                                               ; preds = %11
  %21 = load i64, ptr @H5E_OHDR_g, align 8
  %22 = load i64, ptr @H5E_CANTCOPY_g, align 8
  %23 = call i32 (ptr, ptr, i32, i64, i64, ptr, ...) @H5E_printf_stack(ptr noundef nonnull @.str, ptr noundef nonnull @__func__.H5O__shared_post_copy_file, i32 noundef 648, i64 noundef %21, i64 noundef %22, ptr noundef nonnull @.str.6) #7
  br label %40

24:                                               ; preds = %11
  store i32 2, ptr %3, align 8
  %25 = getelementptr inbounds i8, ptr %3, i64 8
  store ptr %0, ptr %25, align 8
  %26 = load i32, ptr %1, align 8
  %27 = getelementptr inbounds i8, ptr %3, i64 16
  store i32 %26, ptr %27, align 8
  %28 = getelementptr inbounds i8, ptr %3, i64 24
  store i32 0, ptr %28, align 8
  %29 = getelementptr inbounds i8, ptr %7, i64 8
  %30 = load i64, ptr %29, align 8
  %31 = getelementptr inbounds i8, ptr %3, i64 32
  store i64 %30, ptr %31, align 8
  br label %40

32:                                               ; preds = %6
  %33 = load i32, ptr %1, align 8
  %34 = tail call i32 @H5SM_try_share(ptr noundef %0, ptr noundef null, i32 noundef 2, i32 noundef %33, ptr noundef %3, ptr noundef %4) #7
  %35 = icmp slt i32 %34, 0
  br i1 %35, label %36, label %40

36:                                               ; preds = %32
  %37 = load i64, ptr @H5E_OHDR_g, align 8
  %38 = load i64, ptr @H5E_BADMESG_g, align 8
  %39 = tail call i32 (ptr, ptr, i32, i64, i64, ptr, ...) @H5E_printf_stack(ptr noundef nonnull @.str, ptr noundef nonnull @__func__.H5O__shared_post_copy_file, i32 noundef 656, i64 noundef %37, i64 noundef %38, ptr noundef nonnull @.str.7) #7
  br label %40

40:                                               ; preds = %24, %32, %36, %20
  %.0 = phi i32 [ -1, %20 ], [ 0, %24 ], [ -1, %36 ], [ 0, %32 ]
  ret i32 %.0
}